target datalayout = "e-m:e-p270:32:32-p271:32:32-p272:64:64-i64:64-i128:128-f80:128-n8:16:32:64-S128"
target triple = "x86_64-pc-linux-gnu"

%struct.SDL_WaylandSeat = type { ptr, ptr, ptr, ptr, ptr, %struct.wl_list, i32, i32, %struct.anon, %struct.anon.1, %struct.anon.4, %struct.anon.5, %struct.anon.6 }
%struct.wl_list = type { ptr, ptr }
%struct.anon = type { ptr, ptr, ptr, ptr, ptr, %struct.SDL_WaylandKeyboardRepeat, i64, i16, i16, i32, i8, %struct.anon.0 }
%struct.SDL_WaylandKeyboardRepeat = type { i32, i32, i32, i8, i8, i32, i64, i64, i64, i32, [8 x i8] }
%struct.anon.0 = type { ptr, ptr, ptr, ptr, i32, i32, i32, i32, i32, i32, i32, i32, i32, i32, i32 }
%struct.anon.1 = type { ptr, ptr, ptr, ptr, ptr, ptr, ptr, ptr, i64, i32, i32, %struct.SDL_Point, i32, %struct.anon.2, %struct.anon.3 }
%struct.SDL_Point = type { i32, i32 }
%struct.anon.2 = type { i32, float, i32, float, i64, i32 }
%struct.anon.3 = type { ptr, ptr, ptr, i64, i64, i32 }
%struct.anon.4 = type { ptr, ptr, i64, %struct.wl_list }
%struct.anon.5 = type { ptr, %struct.SDL_Rect, i8, i8 }
%struct.SDL_Rect = type { i32, i32, i32, i32 }
%struct.anon.6 = type { ptr, %struct.wl_list }
%struct.SDL_AtomicInt = type { i32 }
%struct.SDL_WindowData = type { ptr, ptr, ptr, ptr, ptr, ptr, ptr, %union.anon, i32, i32, i32, i32, ptr, ptr, ptr, ptr, ptr, ptr, ptr, ptr, ptr, ptr, ptr, ptr, ptr, ptr, %struct.SDL_AtomicInt, ptr, i32, ptr, double, ptr, i32, i32, i32, i32, %struct.anon.14, %struct.anon.15, %struct.anon.16, %struct.anon.17, %struct.anon.18, %struct.anon.19, %struct.anon.20, i32, i32, i32, i64, i32, i32, i8, i8, i8, i8, i8, i8, i8, i8, i8, i8, i8, i8, i8, i8, i32, %struct.wl_list }
%union.anon = type { %struct.anon.10 }
%struct.anon.10 = type { ptr, %union.anon.11, i8 }
%union.anon.11 = type { %struct.anon.13 }
%struct.anon.13 = type { ptr, ptr }
%struct.anon.14 = type { double, double }
%struct.anon.15 = type { i32, i32, i32, i32 }
%struct.anon.16 = type { i32, i32, i32, i32 }
%struct.anon.17 = type { i32, i32 }
%struct.anon.18 = type { i32, i32 }
%struct.anon.19 = type { i32, i32 }
%struct.anon.20 = type { i32, i32, i8 }

@WAYLAND_wl_proxy_marshal_flags = external global ptr, align 8
@WAYLAND_wl_proxy_get_version = external global ptr, align 8
@WAYLAND_wl_proxy_destroy = external global ptr, align 8

; Function Attrs: inlinehint nounwind uwtable
define internal void @wl_pointer_destroy(ptr noundef %0) #2 {
  %2 = alloca ptr, align 8
  store ptr %0, ptr %2, align 8
  %3 = load ptr, ptr @WAYLAND_wl_proxy_destroy, align 8
  %4 = load ptr, ptr %2, align 8
  call void %3(ptr noundef %4)
  ret void
}

; Function Attrs: inlinehint nounwind uwtable
define internal void @wl_pointer_release(ptr noundef %0) #2 {
  %2 = alloca ptr, align 8
  store ptr %0, ptr %2, align 8
  %3 = load ptr, ptr @WAYLAND_wl_proxy_marshal_flags, align 8
  %4 = load ptr, ptr %2, align 8
  %5 = load ptr, ptr @WAYLAND_wl_proxy_get_version, align 8
  %6 = load ptr, ptr %2, align 8
  %7 = call i32 %5(ptr noundef %6)
  %8 = call ptr (ptr, i32, ptr, i32, i32, ...) %3(ptr noundef %4, i32 noundef 1, ptr noundef null, i32 noundef %7, i32 noundef 1)
  ret void
}

; Function Attrs: inlinehint nounwind uwtable
define internal i32 @wl_pointer_get_version(ptr noundef %0) #2 {
  %2 = alloca ptr, align 8
  store ptr %0, ptr %2, align 8
  %3 = load ptr, ptr @WAYLAND_wl_proxy_get_version, align 8
  %4 = load ptr, ptr %2, align 8
  %5 = call i32 %3(ptr noundef %4)
  ret i32 %5
}

; Function Attrs: inlinehint nounwind uwtable
define internal void @wp_cursor_shape_device_v1_destroy(ptr noundef %0) #2 {
  %2 = alloca ptr, align 8
  store ptr %0, ptr %2, align 8
  %3 = load ptr, ptr @WAYLAND_wl_proxy_marshal_flags, align 8
  %4 = load ptr, ptr %2, align 8
  %5 = load ptr, ptr @WAYLAND_wl_proxy_get_version, align 8
  %6 = load ptr, ptr %2, align 8
  %7 = call i32 %5(ptr noundef %6)
  %8 = call ptr (ptr, i32, ptr, i32, i32, ...) %3(ptr noundef %4, i32 noundef 0, ptr noundef null, i32 noundef %7, i32 noundef 1)
  ret void
}

; Function Attrs: inlinehint nounwind uwtable
define internal void @wp_viewport_destroy(ptr noundef %0) #2 {
  %2 = alloca ptr, align 8
  store ptr %0, ptr %2, align 8
  %3 = load ptr, ptr @WAYLAND_wl_proxy_marshal_flags, align 8
  %4 = load ptr, ptr %2, align 8
  %5 = load ptr, ptr @WAYLAND_wl_proxy_get_version, align 8
  %6 = load ptr, ptr %2, align 8
  %7 = call i32 %5(ptr noundef %6)
  %8 = call ptr (ptr, i32, ptr, i32, i32, ...) %3(ptr noundef %4, i32 noundef 0, ptr noundef null, i32 noundef %7, i32 noundef 1)
  ret void
}

; Function Attrs: inlinehint nounwind uwtable
define internal void @wl_surface_destroy(ptr noundef %0) #2 {
  %2 = alloca ptr, align 8
  store ptr %0, ptr %2, align 8
  %3 = load ptr, ptr @WAYLAND_wl_proxy_marshal_flags, align 8
  %4 = load ptr, ptr %2, align 8
  %5 = load ptr, ptr @WAYLAND_wl_proxy_get_version, align 8
  %6 = load ptr, ptr %2, align 8
  %7 = call i32 %5(ptr noundef %6)
  %8 = call ptr (ptr, i32, ptr, i32, i32, ...) %3(ptr noundef %4, i32 noundef 0, ptr noundef null, i32 noundef %7, i32 noundef 1)
  ret void
}

; Function Attrs: inlinehint nounwind uwtable
define internal void @wl_callback_destroy(ptr noundef %0) #2 {
  %2 = alloca ptr, align 8
  store ptr %0, ptr %2, align 8
  %3 = load ptr, ptr @WAYLAND_wl_proxy_destroy, align 8
  %4 = load ptr, ptr %2, align 8
  call void %3(ptr noundef %4)
  ret void
}

; Function Attrs: inlinehint nounwind uwtable
define internal void @zwp_input_timestamps_v1_destroy(ptr noundef %0) #2 {
  %2 = alloca ptr, align 8
  store ptr %0, ptr %2, align 8
  %3 = load ptr, ptr @WAYLAND_wl_proxy_marshal_flags, align 8
  %4 = load ptr, ptr %2, align 8
  %5 = load ptr, ptr @WAYLAND_wl_proxy_get_version, align 8
  %6 = load ptr, ptr %2, align 8
  %7 = call i32 %5(ptr noundef %6)
  %8 = call ptr (ptr, i32, ptr, i32, i32, ...) %3(ptr noundef %4, i32 noundef 0, ptr noundef null, i32 noundef %7, i32 noundef 1)
  ret void
}

; Function Attrs: inlinehint nounwind uwtable
define internal void @zwp_relative_pointer_v1_destroy(ptr noundef %0) #2 {
  %2 = alloca ptr, align 8
  store ptr %0, ptr %2, align 8
  %3 = load ptr, ptr @WAYLAND_wl_proxy_marshal_flags, align 8
  %4 = load ptr, ptr %2, align 8
  %5 = load ptr, ptr @WAYLAND_wl_proxy_get_version, align 8
  %6 = load ptr, ptr %2, align 8
  %7 = call i32 %5(ptr noundef %6)
  %8 = call ptr (ptr, i32, ptr, i32, i32, ...) %3(ptr noundef %4, i32 noundef 0, ptr noundef null, i32 noundef %7, i32 noundef 1)
  ret void
}

; Function Attrs: inlinehint nounwind uwtable
define internal void @zwp_locked_pointer_v1_destroy(ptr noundef %0) #2 {
  %2 = alloca ptr, align 8
  store ptr %0, ptr %2, align 8
  %3 = load ptr, ptr @WAYLAND_wl_proxy_marshal_flags, align 8
  %4 = load ptr, ptr %2, align 8
  %5 = load ptr, ptr @WAYLAND_wl_proxy_get_version, align 8
  %6 = load ptr, ptr %2, align 8
  %7 = call i32 %5(ptr noundef %6)
  %8 = call ptr (ptr, i32, ptr, i32, i32, ...) %3(ptr noundef %4, i32 noundef 0, ptr noundef null, i32 noundef %7, i32 noundef 1)
  ret void
}

; Function Attrs: inlinehint nounwind uwtable
define internal void @zwp_confined_pointer_v1_destroy(ptr noundef %0) #2 {
  %2 = alloca ptr, align 8
  store ptr %0, ptr %2, align 8
  %3 = load ptr, ptr @WAYLAND_wl_proxy_marshal_flags, align 8
  %4 = load ptr, ptr %2, align 8
  %5 = load ptr, ptr @WAYLAND_wl_proxy_get_version, align 8
  %6 = load ptr, ptr %2, align 8
  %7 = call i32 %5(ptr noundef %6)
  %8 = call ptr (ptr, i32, ptr, i32, i32, ...) %3(ptr noundef %4, i32 noundef 0, ptr noundef null, i32 noundef %7, i32 noundef 1)
  ret void
}

; Function Attrs: nounwind uwtable
define internal void @Wayland_SeatDestroyPointer(ptr noundef %0, i1 noundef zeroext %1) #0 {
  %3 = alloca ptr, align 8
  %4 = alloca i8, align 1
  store ptr %0, ptr %3, align 8
  %5 = zext i1 %1 to i8
  store i8 %5, ptr %4, align 1
  %6 = load ptr, ptr %3, align 8
  %7 = getelementptr inbounds nuw %struct.SDL_WaylandSeat, ptr %6, i32 0, i32 9
  %8 = getelementptr inbounds nuw %struct.anon.1, ptr %7, i32 0, i32 6
  %9 = load ptr, ptr %8, align 8
  %10 = icmp ne ptr %9, null
  br i1 %10, label %11, label %23

11:                                               ; preds = %2
  %12 = load ptr, ptr %3, align 8
  %13 = load ptr, ptr %3, align 8
  %14 = getelementptr inbounds nuw %struct.SDL_WaylandSeat, ptr %13, i32 0, i32 9
  %15 = getelementptr inbounds nuw %struct.anon.1, ptr %14, i32 0, i32 0
  %16 = load ptr, ptr %15, align 8
  %17 = load ptr, ptr %3, align 8
  %18 = getelementptr inbounds nuw %struct.SDL_WaylandSeat, ptr %17, i32 0, i32 9
  %19 = getelementptr inbounds nuw %struct.anon.1, ptr %18, i32 0, i32 6
  %20 = load ptr, ptr %19, align 8
  %21 = getelementptr inbounds nuw %struct.SDL_WindowData, ptr %20, i32 0, i32 2
  %22 = load ptr, ptr %21, align 8
  call void @pointer_handle_leave(ptr noundef %12, ptr noundef %16, i32 noundef 0, ptr noundef %22)
  br label %23

23:                                               ; preds = %11, %2
  %24 = load ptr, ptr %3, align 8
  %25 = getelementptr inbounds nuw %struct.SDL_WaylandSeat, ptr %24, i32 0, i32 9
  %26 = getelementptr inbounds nuw %struct.anon.1, ptr %25, i32 0, i32 12
  %27 = load i32, ptr %26, align 8
  %28 = load i8, ptr %4, align 1, !range !7, !noundef !8
  %29 = trunc i8 %28 to i1
  call void @SDL_RemoveMouse(i32 noundef %27, i1 noundef zeroext %29)
  %30 = load ptr, ptr %3, align 8
  %31 = getelementptr inbounds nuw %struct.SDL_WaylandSeat, ptr %30, i32 0, i32 9
  %32 = getelementptr inbounds nuw %struct.anon.1, ptr %31, i32 0, i32 5
  %33 = load ptr, ptr %32, align 8
  %34 = icmp ne ptr %33, null
  br i1 %34, label %35, label %40

35:                                               ; preds = %23
  %36 = load ptr, ptr %3, align 8
  %37 = getelementptr inbounds nuw %struct.SDL_WaylandSeat, ptr %36, i32 0, i32 9
  %38 = getelementptr inbounds nuw %struct.anon.1, ptr %37, i32 0, i32 5
  %39 = load ptr, ptr %38, align 8
  call void @zwp_confined_pointer_v1_destroy(ptr noundef %39)
  br label %40

40:                                               ; preds = %35, %23
  %41 = load ptr, ptr %3, align 8
  %42 = getelementptr inbounds nuw %struct.SDL_WaylandSeat, ptr %41, i32 0, i32 9
  %43 = getelementptr inbounds nuw %struct.anon.1, ptr %42, i32 0, i32 4
  %44 = load ptr, ptr %43, align 8
  %45 = icmp ne ptr %44, null
  br i1 %45, label %46, label %51

46:                                               ; preds = %40
  %47 = load ptr, ptr %3, align 8
  %48 = getelementptr inbounds nuw %struct.SDL_WaylandSeat, ptr %47, i32 0, i32 9
  %49 = getelementptr inbounds nuw %struct.anon.1, ptr %48, i32 0, i32 4
  %50 = load ptr, ptr %49, align 8
  call void @zwp_locked_pointer_v1_destroy(ptr noundef %50)
  br label %51

51:                                               ; preds = %46, %40
  %52 = load ptr, ptr %3, align 8
  %53 = getelementptr inbounds nuw %struct.SDL_WaylandSeat, ptr %52, i32 0, i32 9
  %54 = getelementptr inbounds nuw %struct.anon.1, ptr %53, i32 0, i32 1
  %55 = load ptr, ptr %54, align 8
  %56 = icmp ne ptr %55, null
  br i1 %56, label %57, label %62

57:                                               ; preds = %51
  %58 = load ptr, ptr %3, align 8
  %59 = getelementptr inbounds nuw %struct.SDL_WaylandSeat, ptr %58, i32 0, i32 9
  %60 = getelementptr inbounds nuw %struct.anon.1, ptr %59, i32 0, i32 1
  %61 = load ptr, ptr %60, align 8
  call void @zwp_relative_pointer_v1_destroy(ptr noundef %61)
  br label %62

62:                                               ; preds = %57, %51
  %63 = load ptr, ptr %3, align 8
  %64 = getelementptr inbounds nuw %struct.SDL_WaylandSeat, ptr %63, i32 0, i32 9
  %65 = getelementptr inbounds nuw %struct.anon.1, ptr %64, i32 0, i32 2
  %66 = load ptr, ptr %65, align 8
  %67 = icmp ne ptr %66, null
  br i1 %67, label %68, label %73

68:                                               ; preds = %62
  %69 = load ptr, ptr %3, align 8
  %70 = getelementptr inbounds nuw %struct.SDL_WaylandSeat, ptr %69, i32 0, i32 9
  %71 = getelementptr inbounds nuw %struct.anon.1, ptr %70, i32 0, i32 2
  %72 = load ptr, ptr %71, align 8
  call void @zwp_input_timestamps_v1_destroy(ptr noundef %72)
  br label %73

73:                                               ; preds = %68, %62
  %74 = load ptr, ptr %3, align 8
  %75 = getelementptr inbounds nuw %struct.SDL_WaylandSeat, ptr %74, i32 0, i32 9
  %76 = getelementptr inbounds nuw %struct.anon.1, ptr %75, i32 0, i32 14
  %77 = getelementptr inbounds nuw %struct.anon.3, ptr %76, i32 0, i32 2
  %78 = load ptr, ptr %77, align 8
  %79 = icmp ne ptr %78, null
  br i1 %79, label %80, label %86

80:                                               ; preds = %73
  %81 = load ptr, ptr %3, align 8
  %82 = getelementptr inbounds nuw %struct.SDL_WaylandSeat, ptr %81, i32 0, i32 9
  %83 = getelementptr inbounds nuw %struct.anon.1, ptr %82, i32 0, i32 14
  %84 = getelementptr inbounds nuw %struct.anon.3, ptr %83, i32 0, i32 2
  %85 = load ptr, ptr %84, align 8
  call void @wl_callback_destroy(ptr noundef %85)
  br label %86

86:                                               ; preds = %80, %73
  %87 = load ptr, ptr %3, align 8
  %88 = getelementptr inbounds nuw %struct.SDL_WaylandSeat, ptr %87, i32 0, i32 9
  %89 = getelementptr inbounds nuw %struct.anon.1, ptr %88, i32 0, i32 14
  %90 = getelementptr inbounds nuw %struct.anon.3, ptr %89, i32 0, i32 0
  %91 = load ptr, ptr %90, align 8
  %92 = icmp ne ptr %91, null
  br i1 %92, label %93, label %99

93:                                               ; preds = %86
  %94 = load ptr, ptr %3, align 8
  %95 = getelementptr inbounds nuw %struct.SDL_WaylandSeat, ptr %94, i32 0, i32 9
  %96 = getelementptr inbounds nuw %struct.anon.1, ptr %95, i32 0, i32 14
  %97 = getelementptr inbounds nuw %struct.anon.3, ptr %96, i32 0, i32 0
  %98 = load ptr, ptr %97, align 8
  call void @wl_surface_destroy(ptr noundef %98)
  br label %99

99:                                               ; preds = %93, %86
  %100 = load ptr, ptr %3, align 8
  %101 = getelementptr inbounds nuw %struct.SDL_WaylandSeat, ptr %100, i32 0, i32 9
  %102 = getelementptr inbounds nuw %struct.anon.1, ptr %101, i32 0, i32 14
  %103 = getelementptr inbounds nuw %struct.anon.3, ptr %102, i32 0, i32 1
  %104 = load ptr, ptr %103, align 8
  %105 = icmp ne ptr %104, null
  br i1 %105, label %106, label %112

106:                                              ; preds = %99
  %107 = load ptr, ptr %3, align 8
  %108 = getelementptr inbounds nuw %struct.SDL_WaylandSeat, ptr %107, i32 0, i32 9
  %109 = getelementptr inbounds nuw %struct.anon.1, ptr %108, i32 0, i32 14
  %110 = getelementptr inbounds nuw %struct.anon.3, ptr %109, i32 0, i32 1
  %111 = load ptr, ptr %110, align 8
  call void @wp_viewport_destroy(ptr noundef %111)
  br label %112

112:                                              ; preds = %106, %99
  %113 = load ptr, ptr %3, align 8
  %114 = getelementptr inbounds nuw %struct.SDL_WaylandSeat, ptr %113, i32 0, i32 9
  %115 = getelementptr inbounds nuw %struct.anon.1, ptr %114, i32 0, i32 3
  %116 = load ptr, ptr %115, align 8
  %117 = icmp ne ptr %116, null
  br i1 %117, label %118, label %123

118:                                              ; preds = %112
  %119 = load ptr, ptr %3, align 8
  %120 = getelementptr inbounds nuw %struct.SDL_WaylandSeat, ptr %119, i32 0, i32 9
  %121 = getelementptr inbounds nuw %struct.anon.1, ptr %120, i32 0, i32 3
  %122 = load ptr, ptr %121, align 8
  call void @wp_cursor_shape_device_v1_destroy(ptr noundef %122)
  br label %123

123:                                              ; preds = %118, %112
  %124 = load ptr, ptr %3, align 8
  %125 = getelementptr inbounds nuw %struct.SDL_WaylandSeat, ptr %124, i32 0, i32 9
  %126 = getelementptr inbounds nuw %struct.anon.1, ptr %125, i32 0, i32 0
  %127 = load ptr, ptr %126, align 8
  %128 = icmp ne ptr %127, null
  br i1 %128, label %129, label %147

129:                                              ; preds = %123
  %130 = load ptr, ptr %3, align 8
  %131 = getelementptr inbounds nuw %struct.SDL_WaylandSeat, ptr %130, i32 0, i32 9
  %132 = getelementptr inbounds nuw %struct.anon.1, ptr %131, i32 0, i32 0
  %133 = load ptr, ptr %132, align 8
  %134 = call i32 @wl_pointer_get_version(ptr noundef %133)
  %135 = icmp uge i32 %134, 3
  br i1 %135, label %136, label %141

136:                                              ; preds = %129
  %137 = load ptr, ptr %3, align 8
  %138 = getelementptr inbounds nuw %struct.SDL_WaylandSeat, ptr %137, i32 0, i32 9
  %139 = getelementptr inbounds nuw %struct.anon.1, ptr %138, i32 0, i32 0
  %140 = load ptr, ptr %139, align 8
  call void @wl_pointer_release(ptr noundef %140)
  br label %146

141:                                              ; preds = %129
  %142 = load ptr, ptr %3, align 8
  %143 = getelementptr inbounds nuw %struct.SDL_WaylandSeat, ptr %142, i32 0, i32 9
  %144 = getelementptr inbounds nuw %struct.anon.1, ptr %143, i32 0, i32 0
  %145 = load ptr, ptr %144, align 8
  call void @wl_pointer_destroy(ptr noundef %145)
  br label %146

146:                                              ; preds = %141, %136
  br label %147

147:                                              ; preds = %146, %123
  %148 = load ptr, ptr %3, align 8
  %149 = getelementptr inbounds nuw %struct.SDL_WaylandSeat, ptr %148, i32 0, i32 9
  call void @llvm.memset.p0.i64(ptr align 8 %149, i8 0, i64 176, i1 false)
  ret void
}