; Function Attrs: nounwind uwtable
define internal fastcc void @Wayland_SeatDestroyPointer(ptr noundef %0, i1 noundef zeroext %1) unnamed_addr #0 {
  %3 = getelementptr inbounds nuw i8, ptr %0, i64 272
  %4 = getelementptr inbounds nuw i8, ptr %0, i64 320
  %5 = load ptr, ptr %4, align 8
  %.not = icmp eq ptr %5, null
  br i1 %.not, label %9, label %6

6:                                                ; preds = %2
  %7 = getelementptr inbounds nuw i8, ptr %5, i64 16
  %8 = load ptr, ptr %7, align 8
  tail call void @pointer_handle_leave(ptr noundef nonnull %0, ptr poison, i32 poison, ptr noundef %8)
  br label %9

9:                                                ; preds = %6, %2
  %10 = getelementptr inbounds nuw i8, ptr %0, i64 360
  %11 = load i32, ptr %10, align 8
  tail call void @SDL_RemoveMouse(i32 noundef %11, i1 noundef zeroext %1) #12
  %12 = getelementptr inbounds nuw i8, ptr %0, i64 312
  %13 = load ptr, ptr %12, align 8
  %.not35 = icmp eq ptr %13, null
  br i1 %.not35, label %19, label %14

14:                                               ; preds = %9
  %15 = load ptr, ptr @WAYLAND_wl_proxy_marshal_flags, align 8
  %16 = load ptr, ptr @WAYLAND_wl_proxy_get_version, align 8
  %17 = tail call i32 %16(ptr noundef nonnull %13) #12
  %18 = tail call ptr (ptr, i32, ptr, i32, i32, ...) %15(ptr noundef nonnull %13, i32 noundef 0, ptr noundef null, i32 noundef %17, i32 noundef 1) #12
  br label %19

19:                                               ; preds = %14, %9
  %20 = getelementptr inbounds nuw i8, ptr %0, i64 304
  %21 = load ptr, ptr %20, align 8
  %.not36 = icmp eq ptr %21, null
  br i1 %.not36, label %27, label %22

22:                                               ; preds = %19
  %23 = load ptr, ptr @WAYLAND_wl_proxy_marshal_flags, align 8
  %24 = load ptr, ptr @WAYLAND_wl_proxy_get_version, align 8
  %25 = tail call i32 %24(ptr noundef nonnull %21) #12
  %26 = tail call ptr (ptr, i32, ptr, i32, i32, ...) %23(ptr noundef nonnull %21, i32 noundef 0, ptr noundef null, i32 noundef %25, i32 noundef 1) #12
  br label %27

27:                                               ; preds = %22, %19
  %28 = getelementptr inbounds nuw i8, ptr %0, i64 280
  %29 = load ptr, ptr %28, align 8
  %.not37 = icmp eq ptr %29, null
  br i1 %.not37, label %35, label %30

30:                                               ; preds = %27
  %31 = load ptr, ptr @WAYLAND_wl_proxy_marshal_flags, align 8
  %32 = load ptr, ptr @WAYLAND_wl_proxy_get_version, align 8
  %33 = tail call i32 %32(ptr noundef nonnull %29) #12
  %34 = tail call ptr (ptr, i32, ptr, i32, i32, ...) %31(ptr noundef nonnull %29, i32 noundef 0, ptr noundef null, i32 noundef %33, i32 noundef 1) #12
  br label %35

35:                                               ; preds = %30, %27
  %36 = getelementptr inbounds nuw i8, ptr %0, i64 288
  %37 = load ptr, ptr %36, align 8
  %.not38 = icmp eq ptr %37, null
  br i1 %.not38, label %43, label %38

38:                                               ; preds = %35
  %39 = load ptr, ptr @WAYLAND_wl_proxy_marshal_flags, align 8
  %40 = load ptr, ptr @WAYLAND_wl_proxy_get_version, align 8
  %41 = tail call i32 %40(ptr noundef nonnull %37) #12
  %42 = tail call ptr (ptr, i32, ptr, i32, i32, ...) %39(ptr noundef nonnull %37, i32 noundef 0, ptr noundef null, i32 noundef %41, i32 noundef 1) #12
  br label %43

43:                                               ; preds = %38, %35
  %44 = getelementptr inbounds nuw i8, ptr %0, i64 400
  %45 = getelementptr inbounds nuw i8, ptr %0, i64 416
  %46 = load ptr, ptr %45, align 8
  %.not39 = icmp eq ptr %46, null
  br i1 %.not39, label %49, label %47

47:                                               ; preds = %43
  %48 = load ptr, ptr @WAYLAND_wl_proxy_destroy, align 8
  tail call void %48(ptr noundef nonnull %46) #12
  br label %49

49:                                               ; preds = %47, %43
  %50 = load ptr, ptr %44, align 8
  %.not40 = icmp eq ptr %50, null
  br i1 %.not40, label %56, label %51

51:                                               ; preds = %49
  %52 = load ptr, ptr @WAYLAND_wl_proxy_marshal_flags, align 8
  %53 = load ptr, ptr @WAYLAND_wl_proxy_get_version, align 8
  %54 = tail call i32 %53(ptr noundef nonnull %50) #12
  %55 = tail call ptr (ptr, i32, ptr, i32, i32, ...) %52(ptr noundef nonnull %50, i32 noundef 0, ptr noundef null, i32 noundef %54, i32 noundef 1) #12
  br label %56

56:                                               ; preds = %51, %49
  %57 = getelementptr inbounds nuw i8, ptr %0, i64 408
  %58 = load ptr, ptr %57, align 8
  %.not41 = icmp eq ptr %58, null
  br i1 %.not41, label %64, label %59

59:                                               ; preds = %56
  %60 = load ptr, ptr @WAYLAND_wl_proxy_marshal_flags, align 8
  %61 = load ptr, ptr @WAYLAND_wl_proxy_get_version, align 8
  %62 = tail call i32 %61(ptr noundef nonnull %58) #12
  %63 = tail call ptr (ptr, i32, ptr, i32, i32, ...) %60(ptr noundef nonnull %58, i32 noundef 0, ptr noundef null, i32 noundef %62, i32 noundef 1) #12
  br label %64

64:                                               ; preds = %59, %56
  %65 = getelementptr inbounds nuw i8, ptr %0, i64 296
  %66 = load ptr, ptr %65, align 8
  %.not42 = icmp eq ptr %66, null
  br i1 %.not42, label %72, label %67

67:                                               ; preds = %64
  %68 = load ptr, ptr @WAYLAND_wl_proxy_marshal_flags, align 8
  %69 = load ptr, ptr @WAYLAND_wl_proxy_get_version, align 8
  %70 = tail call i32 %69(ptr noundef nonnull %66) #12
  %71 = tail call ptr (ptr, i32, ptr, i32, i32, ...) %68(ptr noundef nonnull %66, i32 noundef 0, ptr noundef null, i32 noundef %70, i32 noundef 1) #12
  br label %72

72:                                               ; preds = %67, %64
  %73 = load ptr, ptr %3, align 8
  %.not43 = icmp eq ptr %73, null
  br i1 %.not43, label %86, label %74

74:                                               ; preds = %72
  %75 = load ptr, ptr @WAYLAND_wl_proxy_get_version, align 8
  %76 = tail call i32 %75(ptr noundef nonnull %73) #12
  %77 = icmp ugt i32 %76, 2
  %78 = load ptr, ptr %3, align 8
  br i1 %77, label %79, label %84

79:                                               ; preds = %74
  %80 = load ptr, ptr @WAYLAND_wl_proxy_marshal_flags, align 8
  %81 = load ptr, ptr @WAYLAND_wl_proxy_get_version, align 8
  %82 = tail call i32 %81(ptr noundef %78) #12
  %83 = tail call ptr (ptr, i32, ptr, i32, i32, ...) %80(ptr noundef %78, i32 noundef 1, ptr noundef null, i32 noundef %82, i32 noundef 1) #12
  br label %86

84:                                               ; preds = %74
  %85 = load ptr, ptr @WAYLAND_wl_proxy_destroy, align 8
  tail call void %85(ptr noundef %78) #12
  br label %86

86:                                               ; preds = %79, %84, %72
  tail call void @llvm.memset.p0.i64(ptr noundef nonnull align 8 dereferenceable(176) %3, i8 0, i64 176, i1 false)
  ret void
}